target datalayout = "e-m:e-p270:32:32-p271:32:32-p272:64:64-i64:64-i128:128-f80:128-n8:16:32:64-S128"
target triple = "x86_64-pc-linux-gnu"

%struct.__jmp_buf_tag = type { [8 x i64], i32, %struct.__sigset_t }
%struct.__sigset_t = type { [16 x i64] }
%struct.__va_list_tag = type { i32, i32, ptr, ptr }

@.str.2 = private unnamed_addr constant [8 x i8] c"\1B[0;33m\00", align 1
@.str.3 = private unnamed_addr constant [4 x i8] c"ERR\00", align 1
@ctest_err = internal global [1 x %struct.__jmp_buf_tag] zeroinitializer, align 16

; Function Attrs: nounwind uwtable
define void @CTEST_ERR(ptr noundef %0, ...) #0 {
  %2 = alloca ptr, align 8
  %3 = alloca [1 x %struct.__va_list_tag], align 16
  store ptr %0, ptr %2, align 8, !tbaa !3
  call void @llvm.lifetime.start.p0(i64 24, ptr %3) #9
  call void @msg_start(ptr noundef @.str.2, ptr noundef @.str.3)
  %4 = getelementptr inbounds [1 x %struct.__va_list_tag], ptr %3, i64 0, i64 0
  call void @llvm.va_start.p0(ptr %4)
  %5 = load ptr, ptr %2, align 8, !tbaa !3
  %6 = getelementptr inbounds [1 x %struct.__va_list_tag], ptr %3, i64 0, i64 0
  call void @vprint_errormsg(ptr noundef %5, ptr noundef %6)
  %7 = getelementptr inbounds [1 x %struct.__va_list_tag], ptr %3, i64 0, i64 0
  call void @llvm.va_end.p0(ptr %7)
  call void @msg_end()
  call void @longjmp(ptr noundef @ctest_err, i32 noundef 1) #10
  unreachable
}