; Function Attrs: noreturn nounwind uwtable
define void @CTEST_ERR(ptr noundef readonly captures(none) %0, ...) local_unnamed_addr #4 {
  %2 = alloca [1 x %struct.__va_list_tag], align 16
  call void @llvm.lifetime.start.p0(i64 24, ptr nonnull %2) #14
  tail call fastcc void @msg_start(ptr noundef nonnull @.str.2, ptr noundef nonnull @.str.3)
  call void @llvm.va_start.p0(ptr nonnull %2)
  call fastcc void @vprint_errormsg(ptr noundef %0, ptr noundef %2)
  call void @llvm.va_end.p0(ptr nonnull %2)
  call fastcc void @msg_end()
  call void @longjmp(ptr noundef nonnull @ctest_err, i32 noundef 1) #15
  unreachable
}